target datalayout = "e-m:e-p270:32:32-p271:32:32-p272:64:64-i64:64-i128:128-f80:128-n8:16:32:64-S128"
target triple = "x86_64-unknown-linux-gnu"

%"class.rocksdb::WriteBatch::Handler" = type { ptr }
%"class.rocksdb::(anonymous namespace)::MemTableInserter" = type { %"class.rocksdb::WriteBatch::Handler", i64, ptr, ptr, ptr, i8, i64, i64, ptr, i8, i8, ptr, i64, ptr, [8 x i8], %"union.std::aligned_storage<48>::type", ptr, i64, i8, i8, i8, i8, [12 x i8], %"union.std::aligned_storage<64>::type", i8, i8, i8, [13 x i8], %"union.std::aligned_storage<56>::type" }
%"union.std::aligned_storage<48>::type" = type { [48 x i8] }
%"union.std::aligned_storage<64>::type" = type { [64 x i8] }
%"union.std::aligned_storage<56>::type" = type { [56 x i8], [8 x i8] }

; Function Attrs: mustprogress nounwind uwtable
define internal noundef i32 @_ZNK7rocksdb12_GLOBAL__N_116MemTableInserter18WriteBeforePrepareEv(ptr noundef nonnull align 16 dereferenceable(336) %this) unnamed_addr #1 align 2 {
entry:
  %this.addr = alloca ptr, align 8
  store ptr %this, ptr %this.addr, align 8
  %this1 = load ptr, ptr %this.addr, align 8
  %write_before_prepare_ = getelementptr inbounds %"class.rocksdb::(anonymous namespace)::MemTableInserter", ptr %this1, i32 0, i32 20
  %0 = load i8, ptr %write_before_prepare_, align 2
  %tobool = trunc i8 %0 to i1
  %cond = select i1 %tobool, i32 2, i32 1
  ret i32 %cond
}